; Function Attrs: nounwind uwtable
define dso_local range(i32 0, 2) i32 @parse_commit_in_graph(ptr noundef %0, ptr noundef %1) local_unnamed_addr #0 {
  %3 = alloca i32, align 4
  %.b = load i1, ptr @parse_commit_in_graph.checked_env, align 4
  br i1 %.b, label %7, label %4

4:                                                ; preds = %2
  %5 = tail call i32 @git_env_bool(ptr noundef nonnull @.str.18, i32 noundef 0) #24
  %.not = icmp eq i32 %5, 0
  br i1 %.not, label %7, label %6

6:                                                ; preds = %4
  tail call void (ptr, ...) @die(ptr noundef nonnull @.str.19, ptr noundef nonnull @.str.18) #25
  unreachable

7:                                                ; preds = %4, %2
  store i1 true, ptr @parse_commit_in_graph.checked_env, align 4
  %8 = tail call fastcc i32 @prepare_commit_graph(ptr noundef %0)
  %.not4 = icmp eq i32 %8, 0
  br i1 %.not4, label %parse_commit_in_graph_one.exit, label %9

9:                                                ; preds = %7
  %10 = getelementptr inbounds nuw i8, ptr %0, i64 16
  %11 = load ptr, ptr %10, align 8, !tbaa !9
  %12 = getelementptr inbounds nuw i8, ptr %11, i64 96
  %13 = load ptr, ptr %12, align 8, !tbaa !123
  %14 = load i32, ptr %1, align 8
  %15 = and i32 %14, 1
  %.not.i = icmp eq i32 %15, 0
  br i1 %.not.i, label %16, label %parse_commit_in_graph_one.exit

16:                                               ; preds = %9
  %17 = getelementptr i8, ptr %1, i64 64
  %.val.i.i.i = load i32, ptr %17, align 8, !tbaa !49
  %18 = udiv i32 %.val.i.i.i, 32766
  %19 = urem i32 %.val.i.i.i, 32766
  %20 = load i32, ptr @commit_graph_data_slab.2, align 8, !tbaa !55
  %.not.i.i.i.i.i = icmp ugt i32 %20, %18
  br i1 %.not.i.i.i.i.i, label %._crit_edge4.i.i.i.i.i, label %commit_graph_position.exit.thread.i.i

._crit_edge4.i.i.i.i.i:                           ; preds = %16
  %.pre.i.i.i.i.i = load ptr, ptr @commit_graph_data_slab.3, align 8, !tbaa !58
  %21 = zext nneg i32 %18 to i64
  %22 = getelementptr inbounds nuw ptr, ptr %.pre.i.i.i.i.i, i64 %21
  %23 = load ptr, ptr %22, align 8, !tbaa !59
  %.not35.i.i.i.i.i = icmp eq ptr %23, null
  br i1 %.not35.i.i.i.i.i, label %commit_graph_position.exit.thread.i.i, label %commit_graph_position.exit.i.i

commit_graph_position.exit.i.i:                   ; preds = %._crit_edge4.i.i.i.i.i
  %24 = zext nneg i32 %19 to i64
  %25 = getelementptr inbounds nuw %struct.commit_graph_data, ptr %23, i64 %24
  %26 = load i32, ptr %25, align 8, !tbaa !61
  %.not.i.i = icmp eq i32 %26, -1
  br i1 %.not.i.i, label %commit_graph_position.exit.thread.i.i, label %find_commit_pos_in_graph.exit.thread.i

commit_graph_position.exit.thread.i.i:            ; preds = %commit_graph_position.exit.i.i, %._crit_edge4.i.i.i.i.i, %16
  %27 = getelementptr inbounds nuw i8, ptr %1, i64 4
  call void @llvm.lifetime.start.p0(i64 4, ptr nonnull %3) #24
  %.not12.i.i.i = icmp eq ptr %13, null
  br i1 %.not12.i.i.i, label %find_commit_pos_in_graph.exit.thread12.i, label %.lr.ph.i.i.i

.lr.ph.i.i.i:                                     ; preds = %commit_graph_position.exit.thread.i.i, %36
  %.013.i.i.i = phi ptr [ %38, %36 ], [ %13, %commit_graph_position.exit.thread.i.i ]
  %28 = getelementptr inbounds nuw i8, ptr %.013.i.i.i, i64 96
  %29 = load ptr, ptr %28, align 8, !tbaa !95
  %30 = getelementptr inbounds nuw i8, ptr %.013.i.i.i, i64 104
  %31 = load ptr, ptr %30, align 8, !tbaa !99
  %32 = getelementptr inbounds nuw i8, ptr %.013.i.i.i, i64 16
  %33 = load i8, ptr %32, align 8, !tbaa !81
  %34 = zext i8 %33 to i64
  %35 = call i32 @bsearch_hash(ptr noundef nonnull %27, ptr noundef %29, ptr noundef %31, i64 noundef %34, ptr noundef nonnull %3) #24
  %.not9.i.i.i = icmp eq i32 %35, 0
  br i1 %.not9.i.i.i, label %36, label %find_commit_pos_in_graph.exit.i

36:                                               ; preds = %.lr.ph.i.i.i
  %37 = getelementptr inbounds nuw i8, ptr %.013.i.i.i, i64 88
  %38 = load ptr, ptr %37, align 8, !tbaa !114
  %.not.i.i.i = icmp eq ptr %38, null
  br i1 %.not.i.i.i, label %find_commit_pos_in_graph.exit.thread12.i, label %.lr.ph.i.i.i, !llvm.loop !131

find_commit_pos_in_graph.exit.thread12.i:         ; preds = %36, %commit_graph_position.exit.thread.i.i
  call void @llvm.lifetime.end.p0(i64 4, ptr nonnull %3) #24
  br label %parse_commit_in_graph_one.exit

find_commit_pos_in_graph.exit.i:                  ; preds = %.lr.ph.i.i.i
  %39 = load i32, ptr %3, align 4, !tbaa !47
  %40 = getelementptr inbounds nuw i8, ptr %.013.i.i.i, i64 80
  %41 = load i32, ptr %40, align 8, !tbaa !116
  %42 = add i32 %41, %39
  call void @llvm.lifetime.end.p0(i64 4, ptr nonnull %3) #24
  br label %find_commit_pos_in_graph.exit.thread.i

find_commit_pos_in_graph.exit.thread.i:           ; preds = %find_commit_pos_in_graph.exit.i, %commit_graph_position.exit.i.i
  %.111.i = phi i32 [ %42, %find_commit_pos_in_graph.exit.i ], [ %26, %commit_graph_position.exit.i.i ]
  %43 = call fastcc i32 @fill_commit_in_graph(ptr noundef %0, ptr noundef nonnull %1, ptr noundef readonly %13, i32 noundef %.111.i)
  br label %parse_commit_in_graph_one.exit

parse_commit_in_graph_one.exit:                   ; preds = %find_commit_pos_in_graph.exit.thread.i, %find_commit_pos_in_graph.exit.thread12.i, %9, %7
  %.0 = phi i32 [ 0, %7 ], [ %43, %find_commit_pos_in_graph.exit.thread.i ], [ 1, %9 ], [ 0, %find_commit_pos_in_graph.exit.thread12.i ]
  ret i32 %.0
}